; Function Attrs: mustprogress uwtable
define noundef zeroext i1 @_ZNK17MLRenderingAction10isSameTypeERKS_(ptr noundef nonnull align 8 dereferenceable(16) %0, ptr noundef nonnull align 8 dereferenceable(16) %1) local_unnamed_addr #9 align 2 {
  %3 = load ptr, ptr %0, align 8
  %4 = load ptr, ptr %3, align 8
  %5 = tail call noundef ptr %4(ptr noundef nonnull align 8 dereferenceable(16) %0)
  %6 = tail call noundef ptr @_ZNK11QMetaObject9classNameEv(ptr noundef nonnull align 8 dereferenceable(48) %5)
  %7 = load ptr, ptr %1, align 8
  %8 = load ptr, ptr %7, align 8
  %9 = tail call noundef ptr %8(ptr noundef nonnull align 8 dereferenceable(16) %1)
  %10 = tail call noundef ptr @_ZNK11QMetaObject9classNameEv(ptr noundef nonnull align 8 dereferenceable(48) %9)
  %11 = icmp eq ptr %6, %10
  ret i1 %11
}